target datalayout = "e-m:e-p270:32:32-p271:32:32-p272:64:64-i64:64-i128:128-f80:128-n8:16:32:64-S128"
target triple = "x86_64-pc-linux-gnu"

%struct.geodesic = type { double, double, double, double, double, double, double, double, double }

@n_S = external global i32, align 4
@GEODESIC = external global %struct.geodesic, align 8

; Function Attrs: mustprogress uwtable
define internal void @_ZL7do_geodv() #5 {
  %1 = alloca double, align 8
  %2 = alloca double, align 8
  %3 = alloca double, align 8
  %4 = load double, ptr getelementptr inbounds (%struct.geodesic, ptr @GEODESIC, i32 0, i32 6), align 8
  store double %4, ptr %1, align 8
  %5 = load double, ptr getelementptr inbounds (%struct.geodesic, ptr @GEODESIC, i32 0, i32 5), align 8
  store double %5, ptr %2, align 8
  %6 = load double, ptr getelementptr inbounds (%struct.geodesic, ptr @GEODESIC, i32 0, i32 3), align 8
  %7 = load double, ptr getelementptr inbounds (%struct.geodesic, ptr @GEODESIC, i32 0, i32 2), align 8
  call void @_ZL7printLLdd(double noundef %6, double noundef %7)
  %8 = call i32 @putchar(i32 noundef 10)
  %9 = load double, ptr getelementptr inbounds (%struct.geodesic, ptr @GEODESIC, i32 0, i32 8), align 8
  %10 = load i32, ptr @n_S, align 4
  %11 = sitofp i32 %10 to double
  %12 = fdiv double %9, %11
  store double %12, ptr %3, align 8
  store double %12, ptr getelementptr inbounds (%struct.geodesic, ptr @GEODESIC, i32 0, i32 8), align 8
  br label %13

13:                                               ; preds = %21, %0
  %14 = load i32, ptr @n_S, align 4
  %15 = add nsw i32 %14, -1
  store i32 %15, ptr @n_S, align 4
  %16 = icmp ne i32 %15, 0
  br i1 %16, label %17, label %25

17:                                               ; preds = %13
  call void @geod_for()
  %18 = load double, ptr getelementptr inbounds (%struct.geodesic, ptr @GEODESIC, i32 0, i32 6), align 8
  %19 = load double, ptr getelementptr inbounds (%struct.geodesic, ptr @GEODESIC, i32 0, i32 5), align 8
  call void @_ZL7printLLdd(double noundef %18, double noundef %19)
  %20 = call i32 @putchar(i32 noundef 10)
  br label %21

21:                                               ; preds = %17
  %22 = load double, ptr %3, align 8
  %23 = load double, ptr getelementptr inbounds (%struct.geodesic, ptr @GEODESIC, i32 0, i32 8), align 8
  %24 = fadd double %23, %22
  store double %24, ptr getelementptr inbounds (%struct.geodesic, ptr @GEODESIC, i32 0, i32 8), align 8
  br label %13, !llvm.loop !12

25:                                               ; preds = %13
  %26 = load double, ptr %1, align 8
  %27 = load double, ptr %2, align 8
  call void @_ZL7printLLdd(double noundef %26, double noundef %27)
  %28 = call i32 @putchar(i32 noundef 10)
  ret void
}