; Function Attrs: mustprogress norecurse uwtable
define internal fastcc void @_ZL7do_geodv() unnamed_addr #5 {
  %1 = load double, ptr getelementptr inbounds (%struct.geodesic, ptr @GEODESIC, i64 0, i32 6), align 8
  %2 = load double, ptr getelementptr inbounds (%struct.geodesic, ptr @GEODESIC, i64 0, i32 5), align 8
  %3 = load double, ptr getelementptr inbounds (%struct.geodesic, ptr @GEODESIC, i64 0, i32 3), align 8
  %4 = load double, ptr getelementptr inbounds (%struct.geodesic, ptr @GEODESIC, i64 0, i32 2), align 8
  tail call fastcc void @_ZL7printLLdd(double noundef %3, double noundef %4)
  %5 = tail call i32 @putchar(i32 noundef 10)
  %6 = load double, ptr getelementptr inbounds (%struct.geodesic, ptr @GEODESIC, i64 0, i32 8), align 8
  %7 = load i32, ptr @n_S, align 4
  %8 = sitofp i32 %7 to double
  %9 = fdiv double %6, %8
  store double %9, ptr getelementptr inbounds (%struct.geodesic, ptr @GEODESIC, i64 0, i32 8), align 8
  %10 = add nsw i32 %7, -1
  store i32 %10, ptr @n_S, align 4
  %.not3 = icmp eq i32 %10, 0
  br i1 %.not3, label %._crit_edge, label %.lr.ph

.lr.ph:                                           ; preds = %0, %.lr.ph
  tail call void @geod_for()
  %11 = load double, ptr getelementptr inbounds (%struct.geodesic, ptr @GEODESIC, i64 0, i32 6), align 8
  %12 = load double, ptr getelementptr inbounds (%struct.geodesic, ptr @GEODESIC, i64 0, i32 5), align 8
  tail call fastcc void @_ZL7printLLdd(double noundef %11, double noundef %12)
  %13 = tail call i32 @putchar(i32 noundef 10)
  %14 = load double, ptr getelementptr inbounds (%struct.geodesic, ptr @GEODESIC, i64 0, i32 8), align 8
  %15 = fadd double %9, %14
  store double %15, ptr getelementptr inbounds (%struct.geodesic, ptr @GEODESIC, i64 0, i32 8), align 8
  %16 = load i32, ptr @n_S, align 4
  %17 = add nsw i32 %16, -1
  store i32 %17, ptr @n_S, align 4
  %.not = icmp eq i32 %17, 0
  br i1 %.not, label %._crit_edge, label %.lr.ph, !llvm.loop !12

._crit_edge:                                      ; preds = %.lr.ph, %0
  tail call fastcc void @_ZL7printLLdd(double noundef %1, double noundef %2)
  %18 = tail call i32 @putchar(i32 noundef 10)
  ret void
}